target datalayout = "e-m:e-p270:32:32-p271:32:32-p272:64:64-i64:64-i128:128-f80:128-n8:16:32:64-S128"
target triple = "x86_64-pc-linux-gnu"

%"class.rocksdb::MemTableListVersion" = type { %"class.std::__cxx11::list", %"class.std::__cxx11::list", i32, i64, i32, ptr, i64 }
%"class.std::__cxx11::list" = type { %"class.std::__cxx11::_List_base" }
%"class.std::__cxx11::_List_base" = type { %"struct.std::__cxx11::_List_base<rocksdb::ReadOnlyMemTable *, std::allocator<rocksdb::ReadOnlyMemTable *>>::_List_impl" }
%"struct.std::__cxx11::_List_base<rocksdb::ReadOnlyMemTable *, std::allocator<rocksdb::ReadOnlyMemTable *>>::_List_impl" = type { %"struct.std::__detail::_List_node_header" }
%"struct.std::__detail::_List_node_header" = type { %"struct.std::__detail::_List_node_base", i64 }
%"struct.std::__detail::_List_node_base" = type { ptr, ptr }
%"class.rocksdb::MemTableList" = type { %"struct.std::atomic", %"struct.std::atomic", i32, ptr, i32, i8, i8, i64, %"struct.std::atomic.47", %"struct.std::atomic", i64 }
%"struct.std::atomic.47" = type { %"struct.std::__atomic_base.48" }
%"struct.std::__atomic_base.48" = type { i64 }
%"struct.std::atomic" = type { %"struct.std::__atomic_base" }
%"struct.std::__atomic_base" = type { i8 }

; Function Attrs: mustprogress nounwind uwtable
define linkonce_odr noundef i64 @_ZNKSt7__cxx1110_List_baseIPN7rocksdb16ReadOnlyMemTableESaIS3_EE11_M_get_sizeEv(ptr noundef nonnull align 8 dereferenceable(24) %0) #3 comdat align 2 {
  %2 = alloca ptr, align 8
  store ptr %0, ptr %2, align 8, !tbaa !138
  %3 = load ptr, ptr %2, align 8
  %4 = getelementptr inbounds nuw %"class.std::__cxx11::_List_base", ptr %3, i32 0, i32 0
  %5 = getelementptr inbounds nuw %"struct.std::__cxx11::_List_base<rocksdb::ReadOnlyMemTable *, std::allocator<rocksdb::ReadOnlyMemTable *>>::_List_impl", ptr %4, i32 0, i32 0
  %6 = getelementptr inbounds nuw %"struct.std::__detail::_List_node_header", ptr %5, i32 0, i32 1
  %7 = load i64, ptr %6, align 8, !tbaa !1093
  ret i64 %7
}

; Function Attrs: noinline noreturn nounwind uwtable
define linkonce_odr hidden void @__clang_call_terminate(ptr noundef %0) #14 comdat {
  %2 = call ptr @__cxa_begin_catch(ptr %0) #4
  call void @_ZSt9terminatev() #19
  unreachable
}

; Function Attrs: mustprogress uwtable
define linkonce_odr noundef i64 @_ZNKSt7__cxx114listIPN7rocksdb16ReadOnlyMemTableESaIS3_EE13_M_node_countEv(ptr noundef nonnull align 8 dereferenceable(24) %0) #5 comdat align 2 {
  %2 = alloca ptr, align 8
  store ptr %0, ptr %2, align 8, !tbaa !63
  %3 = load ptr, ptr %2, align 8
  %4 = call noundef i64 @_ZNKSt7__cxx1110_List_baseIPN7rocksdb16ReadOnlyMemTableESaIS3_EE11_M_get_sizeEv(ptr noundef nonnull align 8 dereferenceable(24) %3)
  ret i64 %4
}

; Function Attrs: mustprogress nounwind uwtable
define noundef zeroext i1 @_ZNK7rocksdb12MemTableList14IsFlushPendingEv(ptr noundef nonnull align 8 dereferenceable(56) %0) #3 align 2 {
  %2 = alloca i1, align 1
  %3 = alloca ptr, align 8
  store ptr %0, ptr %3, align 8, !tbaa !141
  %4 = load ptr, ptr %3, align 8
  %5 = getelementptr inbounds nuw %"class.rocksdb::MemTableList", ptr %4, i32 0, i32 6
  %6 = load i8, ptr %5, align 1, !tbaa !262, !range !164, !noundef !165
  %7 = trunc i8 %6 to i1
  br i1 %7, label %8, label %12

8:                                                ; preds = %1
  %9 = getelementptr inbounds nuw %"class.rocksdb::MemTableList", ptr %4, i32 0, i32 4
  %10 = load i32, ptr %9, align 8, !tbaa !263
  %11 = icmp sgt i32 %10, 0
  br i1 %11, label %18, label %12

12:                                               ; preds = %8, %1
  %13 = getelementptr inbounds nuw %"class.rocksdb::MemTableList", ptr %4, i32 0, i32 4
  %14 = load i32, ptr %13, align 8, !tbaa !263
  %15 = getelementptr inbounds nuw %"class.rocksdb::MemTableList", ptr %4, i32 0, i32 2
  %16 = load i32, ptr %15, align 4, !tbaa !264
  %17 = icmp sge i32 %14, %16
  br i1 %17, label %18, label %19

18:                                               ; preds = %12, %8
  store i1 true, ptr %2, align 1
  br label %20

19:                                               ; preds = %12
  store i1 false, ptr %2, align 1
  br label %20

20:                                               ; preds = %19, %18
  %21 = load i1, ptr %2, align 1
  ret i1 %21
}

; Function Attrs: mustprogress nounwind uwtable
define linkonce_odr noundef i64 @_ZNKSt7__cxx114listIPN7rocksdb16ReadOnlyMemTableESaIS3_EE4sizeEv(ptr noundef nonnull align 8 dereferenceable(24) %0) #3 comdat align 2 personality ptr @__gxx_personality_v0 {
  %2 = alloca ptr, align 8
  store ptr %0, ptr %2, align 8, !tbaa !63
  %3 = load ptr, ptr %2, align 8
  %4 = invoke noundef i64 @_ZNKSt7__cxx114listIPN7rocksdb16ReadOnlyMemTableESaIS3_EE13_M_node_countEv(ptr noundef nonnull align 8 dereferenceable(24) %3)
          to label %5 unwind label %6

5:                                                ; preds = %1
  ret i64 %4

6:                                                ; preds = %1
  %7 = landingpad { ptr, i32 }
          catch ptr null
  %8 = extractvalue { ptr, i32 } %7, 0
  call void @__clang_call_terminate(ptr %8) #19
  unreachable
}

; Function Attrs: mustprogress nounwind uwtable
define noundef zeroext i1 @_ZNK7rocksdb12MemTableList23IsFlushPendingOrRunningEv(ptr noundef nonnull align 8 dereferenceable(56) %0) #3 align 2 {
  %2 = alloca i1, align 1
  %3 = alloca ptr, align 8
  store ptr %0, ptr %3, align 8, !tbaa !141
  %4 = load ptr, ptr %3, align 8
  %5 = getelementptr inbounds nuw %"class.rocksdb::MemTableList", ptr %4, i32 0, i32 3
  %6 = load ptr, ptr %5, align 8, !tbaa !143
  %7 = getelementptr inbounds nuw %"class.rocksdb::MemTableListVersion", ptr %6, i32 0, i32 0
  %8 = call noundef i64 @_ZNKSt7__cxx114listIPN7rocksdb16ReadOnlyMemTableESaIS3_EE4sizeEv(ptr noundef nonnull align 8 dereferenceable(24) %7) #4
  %9 = getelementptr inbounds nuw %"class.rocksdb::MemTableList", ptr %4, i32 0, i32 4
  %10 = load i32, ptr %9, align 8, !tbaa !263
  %11 = sext i32 %10 to i64
  %12 = sub i64 %8, %11
  %13 = icmp ugt i64 %12, 0
  br i1 %13, label %14, label %15

14:                                               ; preds = %1
  store i1 true, ptr %2, align 1
  br label %17

15:                                               ; preds = %1
  %16 = call noundef zeroext i1 @_ZNK7rocksdb12MemTableList14IsFlushPendingEv(ptr noundef nonnull align 8 dereferenceable(56) %4)
  store i1 %16, ptr %2, align 1
  br label %17

17:                                               ; preds = %15, %14
  %18 = load i1, ptr %2, align 1
  ret i1 %18
}