; Function Attrs: mustprogress nofree norecurse nosync nounwind willreturn memory(read, inaccessiblemem: none) uwtable
define noundef zeroext i1 @_ZNK7rocksdb12MemTableList23IsFlushPendingOrRunningEv(ptr noundef nonnull readonly align 8 captures(none) dereferenceable(56) %0) local_unnamed_addr #8 align 2 personality ptr @__gxx_personality_v0 {
  %2 = getelementptr inbounds nuw i8, ptr %0, i64 8
  %3 = load ptr, ptr %2, align 8, !tbaa !108
  %4 = getelementptr inbounds nuw i8, ptr %3, i64 16
  %5 = load i64, ptr %4, align 8, !tbaa !23
  %6 = getelementptr inbounds nuw i8, ptr %0, i64 16
  %7 = load i32, ptr %6, align 8, !tbaa !215
  %8 = sext i32 %7 to i64
  %.not = icmp eq i64 %5, %8
  br i1 %.not, label %9, label %_ZNK7rocksdb12MemTableList14IsFlushPendingEv.exit

9:                                                ; preds = %1
  %10 = getelementptr inbounds nuw i8, ptr %0, i64 21
  %11 = load i8, ptr %10, align 1, !tbaa !213, !range !178, !noundef !179
  %12 = trunc nuw i8 %11 to i1
  %13 = icmp sgt i32 %7, 0
  %or.cond.i = and i1 %13, %12
  br i1 %or.cond.i, label %_ZNK7rocksdb12MemTableList14IsFlushPendingEv.exit, label %14

14:                                               ; preds = %9
  %15 = getelementptr inbounds nuw i8, ptr %0, i64 4
  %16 = load i32, ptr %15, align 4, !tbaa !214
  %.not.i = icmp sge i32 %7, %16
  br label %_ZNK7rocksdb12MemTableList14IsFlushPendingEv.exit

_ZNK7rocksdb12MemTableList14IsFlushPendingEv.exit: ; preds = %14, %9, %1
  %.0 = phi i1 [ true, %1 ], [ true, %9 ], [ %.not.i, %14 ]
  ret i1 %.0
}